target datalayout = "e-m:e-p270:32:32-p271:32:32-p272:64:64-i64:64-i128:128-f80:128-n8:16:32:64-S128"
target triple = "x86_64-pc-linux-gnu"

%struct.ssl_connection_st = type { %struct.ssl_st, ptr, i32, ptr, ptr, ptr, i32, ptr, i32, i32, i32, i32, %struct.OSSL_TIME, %struct.OSSL_TIME, %struct.ossl_statem_st, i32, ptr, ptr, i64, i64, i64, %struct.ossl_quic_tls_callbacks_st, ptr, ptr, %struct.anon, ptr, ptr, ptr, i32, ptr, %struct.ssl_dane_st, ptr, ptr, ptr, ptr, i32, [64 x i8], [64 x i8], [64 x i8], [64 x i8], [64 x i8], [64 x i8], [64 x i8], [64 x i8], [64 x i8], [64 x i8], [64 x i8], [64 x i8], ptr, [64 x i8], i64, i32, i64, [32 x i8], ptr, ptr, ptr, i64, ptr, [32 x i8], i64, i32, ptr, ptr, i32, i32, ptr, ptr, ptr, ptr, ptr, i64, ptr, ptr, i64, i32, i32, i32, i64, i32, i32, i64, i64, i64, %struct.anon.1, ptr, i32, ptr, ptr, ptr, i32, ptr, ptr, ptr, i32, i32, i32, i32, ptr, i64, i32, ptr, %struct.srp_ctx_st, ptr, %struct.record_layer_st, ptr, ptr, ptr, ptr, i64, i32, i32, i32, i64, i64, i64, ptr, ptr, ptr, ptr, ptr, i64, ptr, i64, ptr, i64 }
%struct.ssl_st = type { i32, ptr, ptr, ptr, %struct.CRYPTO_REF_COUNT, ptr, %struct.crypto_ex_data_st }
%struct.CRYPTO_REF_COUNT = type { i32 }
%struct.crypto_ex_data_st = type { ptr, ptr }
%struct.OSSL_TIME = type { i64 }
%struct.ossl_statem_st = type { i32, i32, i32, i32, i32, i32, i32, i32, i32, i32, i32, i32, i32, ptr, ptr, ptr, i8 }
%struct.ossl_quic_tls_callbacks_st = type { ptr, ptr, ptr, ptr, ptr, ptr }
%struct.anon = type { i64, [32 x i8], [32 x i8], ptr, ptr, i32, i32, i32, i32, [2 x i8], i32, i32, i32, i32, %struct.anon.0, [64 x i8], i64, [64 x i8], i64, i32, i32, ptr, i64, ptr, i64, i32, i8, i8, i16, ptr, i16 }
%struct.anon.0 = type { [128 x i8], i64, [128 x i8], i64, i64, i32, ptr, ptr, [4 x ptr], [4 x i16], i64, i32, ptr, i64, ptr, i64, ptr, ptr, ptr, i32, i64, ptr, i32, ptr, i64, ptr, i64, ptr, i64, ptr, ptr, ptr, ptr, i64, i64, ptr, ptr, i32, i32, i32, i32 }
%struct.ssl_dane_st = type { ptr, ptr, ptr, ptr, ptr, i32, i32, i32, i64 }
%struct.anon.1 = type { [29 x i8], ptr, ptr, ptr, i32, ptr, i16, i32, %struct.anon.2, i32, i32, i64, ptr, i64, ptr, i64, ptr, i64, ptr, i64, ptr, i64, ptr, ptr, ptr, ptr, ptr, ptr, ptr, i64, ptr, i64, i32, i32, i32, i32, ptr, i64, i32, i8, i32, [4 x i32], i32, i8, i8, i8, i8 }
%struct.anon.2 = type { ptr, ptr, ptr, i64 }
%struct.srp_ctx_st = type { ptr, ptr, ptr, ptr, ptr, ptr, ptr, ptr, ptr, ptr, ptr, ptr, ptr, ptr, i32, i64 }
%struct.record_layer_st = type { ptr, ptr, ptr, ptr, ptr, ptr, ptr, ptr, i64, i32, i64, [4 x i8], i64, i64, i8, ptr, i32, ptr, ptr, ptr, i64, i64, i64, i64, [32 x %struct.tls_record_st] }
%struct.tls_record_st = type { ptr, i32, i8, ptr, ptr, i64, i64, i16, [8 x i8] }
%struct.cert_st = type { ptr, ptr, ptr, i32, i32, ptr, i64, ptr, i64, ptr, i64, ptr, i64, ptr, ptr, ptr, ptr, %struct.custom_ext_methods, ptr, i32, ptr, ptr, %struct.CRYPTO_REF_COUNT }
%struct.custom_ext_methods = type { ptr, i64 }

; Function Attrs: nounwind uwtable
define i64 @ssl3_callback_ctrl(ptr noundef %0, i32 noundef %1, ptr noundef %2) #0 {
  %4 = alloca i64, align 8
  %5 = alloca ptr, align 8
  %6 = alloca i32, align 4
  %7 = alloca ptr, align 8
  %8 = alloca i32, align 4
  %9 = alloca ptr, align 8
  %10 = alloca i32, align 4
  store ptr %0, ptr %5, align 8, !tbaa !23
  store i32 %1, ptr %6, align 4, !tbaa !18
  store ptr %2, ptr %7, align 8, !tbaa !3
  call void @llvm.lifetime.start.p0(i64 4, ptr %8) #10
  store i32 0, ptr %8, align 4, !tbaa !18
  call void @llvm.lifetime.start.p0(i64 8, ptr %9) #10
  %11 = load ptr, ptr %5, align 8, !tbaa !23
  %12 = icmp eq ptr %11, null
  br i1 %12, label %13, label %14

13:                                               ; preds = %3
  br label %35

14:                                               ; preds = %3
  %15 = load ptr, ptr %5, align 8, !tbaa !23
  %16 = getelementptr inbounds nuw %struct.ssl_st, ptr %15, i32 0, i32 0
  %17 = load i32, ptr %16, align 8, !tbaa !25
  %18 = icmp eq i32 %17, 0
  br i1 %18, label %19, label %21

19:                                               ; preds = %14
  %20 = load ptr, ptr %5, align 8, !tbaa !23
  br label %33

21:                                               ; preds = %14
  %22 = load ptr, ptr %5, align 8, !tbaa !23
  %23 = getelementptr inbounds nuw %struct.ssl_st, ptr %22, i32 0, i32 0
  %24 = load i32, ptr %23, align 8, !tbaa !25
  %25 = and i32 %24, 128
  %26 = icmp ne i32 %25, 0
  br i1 %26, label %27, label %30

27:                                               ; preds = %21
  %28 = load ptr, ptr %5, align 8, !tbaa !23
  %29 = call ptr @ossl_quic_obj_get0_handshake_layer(ptr noundef %28)
  br label %31

30:                                               ; preds = %21
  br label %31

31:                                               ; preds = %30, %27
  %32 = phi ptr [ %29, %27 ], [ null, %30 ]
  br label %33

33:                                               ; preds = %31, %19
  %34 = phi ptr [ %20, %19 ], [ %32, %31 ]
  br label %35

35:                                               ; preds = %33, %13
  %36 = phi ptr [ null, %13 ], [ %34, %33 ]
  store ptr %36, ptr %9, align 8, !tbaa !13
  %37 = load ptr, ptr %9, align 8, !tbaa !13
  %38 = icmp eq ptr %37, null
  br i1 %38, label %39, label %42

39:                                               ; preds = %35
  %40 = load i32, ptr %8, align 4, !tbaa !18
  %41 = sext i32 %40 to i64
  store i64 %41, ptr %4, align 8
  store i32 1, ptr %10, align 4
  br label %67

42:                                               ; preds = %35
  %43 = load i32, ptr %6, align 4, !tbaa !18
  switch i32 %43, label %63 [
    i32 6, label %44
    i32 56, label %50
    i32 79, label %55
    i32 15, label %59
  ]

44:                                               ; preds = %42
  %45 = load ptr, ptr %7, align 8, !tbaa !3
  %46 = load ptr, ptr %9, align 8, !tbaa !13
  %47 = getelementptr inbounds nuw %struct.ssl_connection_st, ptr %46, i32 0, i32 48
  %48 = load ptr, ptr %47, align 8, !tbaa !113
  %49 = getelementptr inbounds nuw %struct.cert_st, ptr %48, i32 0, i32 2
  store ptr %45, ptr %49, align 8, !tbaa !172
  store i32 1, ptr %8, align 4, !tbaa !18
  br label %64

50:                                               ; preds = %42
  %51 = load ptr, ptr %7, align 8, !tbaa !3
  %52 = load ptr, ptr %9, align 8, !tbaa !13
  %53 = getelementptr inbounds nuw %struct.ssl_connection_st, ptr %52, i32 0, i32 84
  %54 = getelementptr inbounds nuw %struct.anon.1, ptr %53, i32 0, i32 1
  store ptr %51, ptr %54, align 8, !tbaa !173
  store i32 1, ptr %8, align 4, !tbaa !18
  br label %64

55:                                               ; preds = %42
  %56 = load ptr, ptr %7, align 8, !tbaa !3
  %57 = load ptr, ptr %9, align 8, !tbaa !13
  %58 = getelementptr inbounds nuw %struct.ssl_connection_st, ptr %57, i32 0, i32 103
  store ptr %56, ptr %58, align 8, !tbaa !174
  store i32 1, ptr %8, align 4, !tbaa !18
  br label %64

59:                                               ; preds = %42
  %60 = load ptr, ptr %7, align 8, !tbaa !3
  %61 = load ptr, ptr %9, align 8, !tbaa !13
  %62 = getelementptr inbounds nuw %struct.ssl_connection_st, ptr %61, i32 0, i32 26
  store ptr %60, ptr %62, align 8, !tbaa !175
  store i64 1, ptr %4, align 8
  store i32 1, ptr %10, align 4
  br label %67

63:                                               ; preds = %42
  br label %64

64:                                               ; preds = %63, %55, %50, %44
  %65 = load i32, ptr %8, align 4, !tbaa !18
  %66 = sext i32 %65 to i64
  store i64 %66, ptr %4, align 8
  store i32 1, ptr %10, align 4
  br label %67

67:                                               ; preds = %64, %59, %39
  call void @llvm.lifetime.end.p0(i64 8, ptr %9) #10
  call void @llvm.lifetime.end.p0(i64 4, ptr %8) #10
  %68 = load i64, ptr %4, align 8
  ret i64 %68
}