; Function Attrs: nounwind uwtable
define range(i64 0, 2) i64 @ssl3_callback_ctrl(ptr noundef %0, i32 noundef %1, ptr noundef %2) local_unnamed_addr #4 {
  %4 = icmp eq ptr %0, null
  br i1 %4, label %.thread, label %5

5:                                                ; preds = %3
  %6 = load i32, ptr %0, align 8, !tbaa !10
  %7 = icmp eq i32 %6, 0
  br i1 %7, label %.thread21, label %8

8:                                                ; preds = %5
  %9 = and i32 %6, 128
  %.not = icmp eq i32 %9, 0
  br i1 %.not, label %.thread, label %10

10:                                               ; preds = %8
  %11 = tail call ptr @ossl_quic_obj_get0_handshake_layer(ptr noundef nonnull %0) #18
  %12 = icmp eq ptr %11, null
  br i1 %12, label %.thread, label %.thread21

.thread21:                                        ; preds = %5, %10
  %13 = phi ptr [ %11, %10 ], [ %0, %5 ]
  switch i32 %1, label %.thread [
    i32 6, label %14
    i32 56, label %18
    i32 79, label %20
    i32 15, label %22
  ]

14:                                               ; preds = %.thread21
  %15 = getelementptr inbounds nuw i8, ptr %13, i64 2176
  %16 = load ptr, ptr %15, align 8, !tbaa !101
  %17 = getelementptr inbounds nuw i8, ptr %16, i64 16
  store ptr %2, ptr %17, align 8, !tbaa !156
  br label %.thread

18:                                               ; preds = %.thread21
  %19 = getelementptr inbounds nuw i8, ptr %13, i64 2576
  store ptr %2, ptr %19, align 8, !tbaa !157
  br label %.thread

20:                                               ; preds = %.thread21
  %21 = getelementptr inbounds nuw i8, ptr %13, i64 3152
  store ptr %2, ptr %21, align 8, !tbaa !158
  br label %.thread

22:                                               ; preds = %.thread21
  %23 = getelementptr inbounds nuw i8, ptr %13, i64 1272
  store ptr %2, ptr %23, align 8, !tbaa !159
  br label %.thread

.thread:                                          ; preds = %8, %3, %14, %18, %20, %.thread21, %10, %22
  %.0 = phi i64 [ 1, %22 ], [ 0, %10 ], [ 0, %.thread21 ], [ 1, %20 ], [ 1, %18 ], [ 1, %14 ], [ 0, %3 ], [ 0, %8 ]
  ret i64 %.0
}